; Function Attrs: mustprogress nofree norecurse nosync nounwind willreturn memory(write, argmem: readwrite, inaccessiblemem: none) uwtable
define internal noundef i32 @lj_cf_coroutine_isyieldable(ptr noundef captures(none) %0) #8 {
  %2 = getelementptr inbounds nuw i8, ptr %0, i64 80
  %3 = load ptr, ptr %2, align 8, !tbaa !69
  %4 = ptrtoint ptr %3 to i64
  %5 = shl i64 %4, 47
  %6 = and i64 %5, 140737488355328
  %7 = sub nuw nsw i64 -140737488355329, %6
  %8 = getelementptr inbounds nuw i8, ptr %0, i64 40
  %9 = load ptr, ptr %8, align 8, !tbaa !4
  %10 = getelementptr inbounds nuw i8, ptr %9, i64 8
  store ptr %10, ptr %8, align 8, !tbaa !4
  store i64 %7, ptr %9, align 8, !tbaa !14
  ret i32 1
}